target datalayout = "e-m:e-p270:32:32-p271:32:32-p272:64:64-i64:64-i128:128-f80:128-n8:16:32:64-S128"
target triple = "x86_64-pc-linux-gnu"

%struct._exr_decode_pipeline = type { i64, ptr, i16, i16, i32, ptr, %struct.exr_chunk_info_t, i32, i32, i64, ptr, ptr, i64, ptr, i64, ptr, i64, ptr, i64, ptr, i64, ptr, i64, ptr, ptr, ptr, ptr, ptr, ptr, [5 x %struct.exr_coding_channel_info_t] }
%struct.exr_chunk_info_t = type { i32, i32, i32, i32, i32, i8, i8, i8, i8, i64, i64, i64, i64, i64 }
%struct.exr_coding_channel_info_t = type { ptr, i32, i32, i32, i32, i8, i8, i16, i16, i16, i32, i32, %union.anon }
%union.anon = type { ptr }

; Function Attrs: inlinehint nounwind uwtable
define internal zeroext i16 @__uint16_identity(i16 noundef zeroext %0) #2 {
  %2 = alloca i16, align 2
  store i16 %0, ptr %2, align 2, !tbaa !44
  %3 = load i16, ptr %2, align 2, !tbaa !44
  ret i16 %3
}

; Function Attrs: inlinehint nounwind uwtable
define internal zeroext i16 @one_to_native16(i16 noundef zeroext %0) #2 {
  %2 = alloca i16, align 2
  store i16 %0, ptr %2, align 2, !tbaa !44
  %3 = load i16, ptr %2, align 2, !tbaa !44
  %4 = call zeroext i16 @__uint16_identity(i16 noundef zeroext %3)
  ret i16 %4
}

; Function Attrs: nounwind uwtable
define internal i32 @unpack_16bit_3chan_interleave_rev(ptr noundef %0) #0 {
  %2 = alloca ptr, align 8
  %3 = alloca ptr, align 8
  %4 = alloca ptr, align 8
  %5 = alloca ptr, align 8
  %6 = alloca ptr, align 8
  %7 = alloca ptr, align 8
  %8 = alloca i32, align 4
  %9 = alloca i32, align 4
  %10 = alloca i32, align 4
  %11 = alloca i32, align 4
  %12 = alloca i32, align 4
  %13 = alloca ptr, align 8
  %14 = alloca i32, align 4
  store ptr %0, ptr %2, align 8, !tbaa !3
  call void @llvm.lifetime.start.p0(i64 8, ptr %3) #6
  %15 = load ptr, ptr %2, align 8, !tbaa !3
  %16 = getelementptr inbounds nuw %struct._exr_decode_pipeline, ptr %15, i32 0, i32 13
  %17 = load ptr, ptr %16, align 8, !tbaa !19
  store ptr %17, ptr %3, align 8, !tbaa !20
  call void @llvm.lifetime.start.p0(i64 8, ptr %4) #6
  call void @llvm.lifetime.start.p0(i64 8, ptr %5) #6
  call void @llvm.lifetime.start.p0(i64 8, ptr %6) #6
  call void @llvm.lifetime.start.p0(i64 8, ptr %7) #6
  call void @llvm.lifetime.start.p0(i64 4, ptr %8) #6
  call void @llvm.lifetime.start.p0(i64 4, ptr %9) #6
  call void @llvm.lifetime.start.p0(i64 4, ptr %10) #6
  %18 = load ptr, ptr %2, align 8, !tbaa !3
  %19 = getelementptr inbounds nuw %struct._exr_decode_pipeline, ptr %18, i32 0, i32 1
  %20 = load ptr, ptr %19, align 8, !tbaa !28
  %21 = getelementptr inbounds %struct.exr_coding_channel_info_t, ptr %20, i64 0
  %22 = getelementptr inbounds nuw %struct.exr_coding_channel_info_t, ptr %21, i32 0, i32 2
  %23 = load i32, ptr %22, align 4, !tbaa !72
  store i32 %23, ptr %8, align 4, !tbaa !8
  %24 = load ptr, ptr %2, align 8, !tbaa !3
  %25 = getelementptr inbounds nuw %struct._exr_decode_pipeline, ptr %24, i32 0, i32 6
  %26 = getelementptr inbounds nuw %struct.exr_chunk_info_t, ptr %25, i32 0, i32 3
  %27 = load i32, ptr %26, align 4, !tbaa !25
  %28 = load ptr, ptr %2, align 8, !tbaa !3
  %29 = getelementptr inbounds nuw %struct._exr_decode_pipeline, ptr %28, i32 0, i32 8
  %30 = load i32, ptr %29, align 4, !tbaa !26
  %31 = sub nsw i32 %27, %30
  store i32 %31, ptr %9, align 4, !tbaa !8
  %32 = load ptr, ptr %2, align 8, !tbaa !3
  %33 = getelementptr inbounds nuw %struct._exr_decode_pipeline, ptr %32, i32 0, i32 1
  %34 = load ptr, ptr %33, align 8, !tbaa !28
  %35 = getelementptr inbounds %struct.exr_coding_channel_info_t, ptr %34, i64 0
  %36 = getelementptr inbounds nuw %struct.exr_coding_channel_info_t, ptr %35, i32 0, i32 11
  %37 = load i32, ptr %36, align 4, !tbaa !37
  store i32 %37, ptr %10, align 4, !tbaa !8
  %38 = load ptr, ptr %2, align 8, !tbaa !3
  %39 = getelementptr inbounds nuw %struct._exr_decode_pipeline, ptr %38, i32 0, i32 1
  %40 = load ptr, ptr %39, align 8, !tbaa !28
  %41 = getelementptr inbounds %struct.exr_coding_channel_info_t, ptr %40, i64 2
  %42 = getelementptr inbounds nuw %struct.exr_coding_channel_info_t, ptr %41, i32 0, i32 12
  %43 = load ptr, ptr %42, align 8, !tbaa !10
  store ptr %43, ptr %7, align 8, !tbaa !20
  %44 = load ptr, ptr %2, align 8, !tbaa !3
  %45 = getelementptr inbounds nuw %struct._exr_decode_pipeline, ptr %44, i32 0, i32 7
  %46 = load i32, ptr %45, align 8, !tbaa !27
  %47 = load i32, ptr %8, align 4, !tbaa !8
  %48 = mul nsw i32 %46, %47
  %49 = mul nsw i32 %48, 6
  %50 = load ptr, ptr %3, align 8, !tbaa !20
  %51 = sext i32 %49 to i64
  %52 = getelementptr inbounds i8, ptr %50, i64 %51
  store ptr %52, ptr %3, align 8, !tbaa !20
  call void @llvm.lifetime.start.p0(i64 4, ptr %11) #6
  %53 = load ptr, ptr %2, align 8, !tbaa !3
  %54 = getelementptr inbounds nuw %struct._exr_decode_pipeline, ptr %53, i32 0, i32 7
  %55 = load i32, ptr %54, align 8, !tbaa !27
  store i32 %55, ptr %11, align 4, !tbaa !8
  br label %56

56:                                               ; preds = %117, %1
  %57 = load i32, ptr %11, align 4, !tbaa !8
  %58 = load i32, ptr %9, align 4, !tbaa !8
  %59 = icmp slt i32 %57, %58
  br i1 %59, label %61, label %60

60:                                               ; preds = %56
  store i32 2, ptr %12, align 4
  call void @llvm.lifetime.end.p0(i64 4, ptr %11) #6
  br label %120

61:                                               ; preds = %56
  call void @llvm.lifetime.start.p0(i64 8, ptr %13) #6
  %62 = load ptr, ptr %7, align 8, !tbaa !20
  store ptr %62, ptr %13, align 8, !tbaa !42
  %63 = load ptr, ptr %3, align 8, !tbaa !20
  store ptr %63, ptr %4, align 8, !tbaa !42
  %64 = load ptr, ptr %4, align 8, !tbaa !42
  %65 = load i32, ptr %8, align 4, !tbaa !8
  %66 = sext i32 %65 to i64
  %67 = getelementptr inbounds i16, ptr %64, i64 %66
  store ptr %67, ptr %5, align 8, !tbaa !42
  %68 = load ptr, ptr %5, align 8, !tbaa !42
  %69 = load i32, ptr %8, align 4, !tbaa !8
  %70 = sext i32 %69 to i64
  %71 = getelementptr inbounds i16, ptr %68, i64 %70
  store ptr %71, ptr %6, align 8, !tbaa !42
  %72 = load i32, ptr %8, align 4, !tbaa !8
  %73 = mul nsw i32 %72, 6
  %74 = load ptr, ptr %3, align 8, !tbaa !20
  %75 = sext i32 %73 to i64
  %76 = getelementptr inbounds i8, ptr %74, i64 %75
  store ptr %76, ptr %3, align 8, !tbaa !20
  call void @llvm.lifetime.start.p0(i64 4, ptr %14) #6
  store i32 0, ptr %14, align 4, !tbaa !8
  br label %77

77:                                               ; preds = %109, %61
  %78 = load i32, ptr %14, align 4, !tbaa !8
  %79 = load i32, ptr %8, align 4, !tbaa !8
  %80 = icmp slt i32 %78, %79
  br i1 %80, label %82, label %81

81:                                               ; preds = %77
  store i32 5, ptr %12, align 4
  call void @llvm.lifetime.end.p0(i64 4, ptr %14) #6
  br label %112

82:                                               ; preds = %77
  %83 = load ptr, ptr %6, align 8, !tbaa !42
  %84 = load i32, ptr %14, align 4, !tbaa !8
  %85 = sext i32 %84 to i64
  %86 = getelementptr inbounds i16, ptr %83, i64 %85
  %87 = load i16, ptr %86, align 2, !tbaa !44
  %88 = call zeroext i16 @one_to_native16(i16 noundef zeroext %87)
  %89 = load ptr, ptr %13, align 8, !tbaa !42
  %90 = getelementptr inbounds i16, ptr %89, i64 0
  store i16 %88, ptr %90, align 2, !tbaa !44
  %91 = load ptr, ptr %5, align 8, !tbaa !42
  %92 = load i32, ptr %14, align 4, !tbaa !8
  %93 = sext i32 %92 to i64
  %94 = getelementptr inbounds i16, ptr %91, i64 %93
  %95 = load i16, ptr %94, align 2, !tbaa !44
  %96 = call zeroext i16 @one_to_native16(i16 noundef zeroext %95)
  %97 = load ptr, ptr %13, align 8, !tbaa !42
  %98 = getelementptr inbounds i16, ptr %97, i64 1
  store i16 %96, ptr %98, align 2, !tbaa !44
  %99 = load ptr, ptr %4, align 8, !tbaa !42
  %100 = load i32, ptr %14, align 4, !tbaa !8
  %101 = sext i32 %100 to i64
  %102 = getelementptr inbounds i16, ptr %99, i64 %101
  %103 = load i16, ptr %102, align 2, !tbaa !44
  %104 = call zeroext i16 @one_to_native16(i16 noundef zeroext %103)
  %105 = load ptr, ptr %13, align 8, !tbaa !42
  %106 = getelementptr inbounds i16, ptr %105, i64 2
  store i16 %104, ptr %106, align 2, !tbaa !44
  %107 = load ptr, ptr %13, align 8, !tbaa !42
  %108 = getelementptr inbounds i16, ptr %107, i64 3
  store ptr %108, ptr %13, align 8, !tbaa !42
  br label %109

109:                                              ; preds = %82
  %110 = load i32, ptr %14, align 4, !tbaa !8
  %111 = add nsw i32 %110, 1
  store i32 %111, ptr %14, align 4, !tbaa !8
  br label %77, !llvm.loop !106

112:                                              ; preds = %81
  %113 = load i32, ptr %10, align 4, !tbaa !8
  %114 = load ptr, ptr %7, align 8, !tbaa !20
  %115 = sext i32 %113 to i64
  %116 = getelementptr inbounds i8, ptr %114, i64 %115
  store ptr %116, ptr %7, align 8, !tbaa !20
  call void @llvm.lifetime.end.p0(i64 8, ptr %13) #6
  br label %117

117:                                              ; preds = %112
  %118 = load i32, ptr %11, align 4, !tbaa !8
  %119 = add nsw i32 %118, 1
  store i32 %119, ptr %11, align 4, !tbaa !8
  br label %56, !llvm.loop !107

120:                                              ; preds = %60
  store i32 1, ptr %12, align 4
  call void @llvm.lifetime.end.p0(i64 4, ptr %10) #6
  call void @llvm.lifetime.end.p0(i64 4, ptr %9) #6
  call void @llvm.lifetime.end.p0(i64 4, ptr %8) #6
  call void @llvm.lifetime.end.p0(i64 8, ptr %7) #6
  call void @llvm.lifetime.end.p0(i64 8, ptr %6) #6
  call void @llvm.lifetime.end.p0(i64 8, ptr %5) #6
  call void @llvm.lifetime.end.p0(i64 8, ptr %4) #6
  call void @llvm.lifetime.end.p0(i64 8, ptr %3) #6
  ret i32 0
}